ARM GAS  /tmp/ccg70GTA.s 			page 1


   1              		.cpu cortex-m3
   2              		.arch armv7-m
   3              		.fpu softvfp
   4              		.eabi_attribute 20, 1
   5              		.eabi_attribute 21, 1
   6              		.eabi_attribute 23, 3
   7              		.eabi_attribute 24, 1
   8              		.eabi_attribute 25, 1
   9              		.eabi_attribute 26, 1
  10              		.eabi_attribute 30, 1
  11              		.eabi_attribute 34, 1
  12              		.eabi_attribute 18, 4
  13              		.file	"hx711.c"
  14              		.text
  15              	.Ltext0:
  16              		.cfi_sections	.debug_frame
  17              		.section	.text.hx711_delay_us,"ax",%progbits
  18              		.align	1
  19              		.global	hx711_delay_us
  20              		.syntax unified
  21              		.thumb
  22              		.thumb_func
  24              	hx711_delay_us:
  25              	.LFB65:
  26              		.file 1 "Core/Src/hx711.c"
   1:Core/Src/hx711.c **** #include "hx711.h"
   2:Core/Src/hx711.c **** 
   3:Core/Src/hx711.c **** #define   _HX711_DELAY_US_LOOP  4
   4:Core/Src/hx711.c **** #define hx711_delay(x)    HAL_Delay(x)
   5:Core/Src/hx711.c **** 
   6:Core/Src/hx711.c **** 
   7:Core/Src/hx711.c **** //#############################################################################################
   8:Core/Src/hx711.c **** void hx711_delay_us(void)
   9:Core/Src/hx711.c **** {
  27              		.loc 1 9 1 view -0
  28              		.cfi_startproc
  29              		@ args = 0, pretend = 0, frame = 0
  30              		@ frame_needed = 0, uses_anonymous_args = 0
  31              		@ link register save eliminated.
  10:Core/Src/hx711.c ****   uint32_t delay = _HX711_DELAY_US_LOOP;
  32              		.loc 1 10 3 view .LVU1
  33              	.LVL0:
  11:Core/Src/hx711.c ****   while (delay > 0)
  34              		.loc 1 11 3 view .LVU2
  10:Core/Src/hx711.c ****   uint32_t delay = _HX711_DELAY_US_LOOP;
  35              		.loc 1 10 12 is_stmt 0 view .LVU3
  36 0000 0423     		movs	r3, #4
  37              		.loc 1 11 9 view .LVU4
  38 0002 04E0     		b	.L2
  39              	.LVL1:
  40              	.L3:
  12:Core/Src/hx711.c ****   {
  13:Core/Src/hx711.c ****     delay--;
  41              		.loc 1 13 5 is_stmt 1 view .LVU5
  42              		.loc 1 13 10 is_stmt 0 view .LVU6
  43 0004 013B     		subs	r3, r3, #1
  44              	.LVL2:
ARM GAS  /tmp/ccg70GTA.s 			page 2


  14:Core/Src/hx711.c ****     __NOP(); __NOP(); __NOP(); __NOP();    
  45              		.loc 1 14 5 is_stmt 1 view .LVU7
  46              		.syntax unified
  47              	@ 14 "Core/Src/hx711.c" 1
  48 0006 00BF     		nop
  49              	@ 0 "" 2
  50              		.loc 1 14 14 view .LVU8
  51              	@ 14 "Core/Src/hx711.c" 1
  52 0008 00BF     		nop
  53              	@ 0 "" 2
  54              		.loc 1 14 23 view .LVU9
  55              	@ 14 "Core/Src/hx711.c" 1
  56 000a 00BF     		nop
  57              	@ 0 "" 2
  58              		.loc 1 14 32 view .LVU10
  59              	@ 14 "Core/Src/hx711.c" 1
  60 000c 00BF     		nop
  61              	@ 0 "" 2
  62              	.LVL3:
  63              		.thumb
  64              		.syntax unified
  65              	.L2:
  11:Core/Src/hx711.c ****   while (delay > 0)
  66              		.loc 1 11 16 view .LVU11
  67 000e 002B     		cmp	r3, #0
  68 0010 F8D1     		bne	.L3
  15:Core/Src/hx711.c ****   }
  16:Core/Src/hx711.c **** }
  69              		.loc 1 16 1 is_stmt 0 view .LVU12
  70 0012 7047     		bx	lr
  71              		.cfi_endproc
  72              	.LFE65:
  74              		.section	.text.hx711_lock,"ax",%progbits
  75              		.align	1
  76              		.global	hx711_lock
  77              		.syntax unified
  78              		.thumb
  79              		.thumb_func
  81              	hx711_lock:
  82              	.LVL4:
  83              	.LFB66:
  17:Core/Src/hx711.c **** //#############################################################################################
  18:Core/Src/hx711.c **** void hx711_lock(hx711_t *hx711)
  19:Core/Src/hx711.c **** {
  84              		.loc 1 19 1 is_stmt 1 view -0
  85              		.cfi_startproc
  86              		@ args = 0, pretend = 0, frame = 0
  87              		@ frame_needed = 0, uses_anonymous_args = 0
  88              		.loc 1 19 1 is_stmt 0 view .LVU14
  89 0000 10B5     		push	{r4, lr}
  90              		.cfi_def_cfa_offset 8
  91              		.cfi_offset 4, -8
  92              		.cfi_offset 14, -4
  93 0002 0446     		mov	r4, r0
  20:Core/Src/hx711.c ****   while (hx711->lock)
  94              		.loc 1 20 3 is_stmt 1 view .LVU15
  95              		.loc 1 20 9 is_stmt 0 view .LVU16
ARM GAS  /tmp/ccg70GTA.s 			page 3


  96 0004 02E0     		b	.L5
  97              	.LVL5:
  98              	.L6:
  21:Core/Src/hx711.c ****     hx711_delay(1);
  99              		.loc 1 21 5 is_stmt 1 view .LVU17
 100 0006 0120     		movs	r0, #1
 101 0008 FFF7FEFF 		bl	HAL_Delay
 102              	.LVL6:
 103              	.L5:
  20:Core/Src/hx711.c ****   while (hx711->lock)
 104              		.loc 1 20 10 view .LVU18
  20:Core/Src/hx711.c ****   while (hx711->lock)
 105              		.loc 1 20 15 is_stmt 0 view .LVU19
 106 000c 237D     		ldrb	r3, [r4, #20]	@ zero_extendqisi2
  20:Core/Src/hx711.c ****   while (hx711->lock)
 107              		.loc 1 20 10 view .LVU20
 108 000e 002B     		cmp	r3, #0
 109 0010 F9D1     		bne	.L6
  22:Core/Src/hx711.c ****   hx711->lock = 1;      
 110              		.loc 1 22 3 is_stmt 1 view .LVU21
 111              		.loc 1 22 15 is_stmt 0 view .LVU22
 112 0012 0123     		movs	r3, #1
 113 0014 2375     		strb	r3, [r4, #20]
  23:Core/Src/hx711.c **** }
 114              		.loc 1 23 1 view .LVU23
 115 0016 10BD     		pop	{r4, pc}
 116              		.loc 1 23 1 view .LVU24
 117              		.cfi_endproc
 118              	.LFE66:
 120              		.section	.text.hx711_unlock,"ax",%progbits
 121              		.align	1
 122              		.global	hx711_unlock
 123              		.syntax unified
 124              		.thumb
 125              		.thumb_func
 127              	hx711_unlock:
 128              	.LVL7:
 129              	.LFB67:
  24:Core/Src/hx711.c **** //#############################################################################################
  25:Core/Src/hx711.c **** void hx711_unlock(hx711_t *hx711)
  26:Core/Src/hx711.c **** {
 130              		.loc 1 26 1 is_stmt 1 view -0
 131              		.cfi_startproc
 132              		@ args = 0, pretend = 0, frame = 0
 133              		@ frame_needed = 0, uses_anonymous_args = 0
 134              		@ link register save eliminated.
  27:Core/Src/hx711.c ****   hx711->lock = 0;
 135              		.loc 1 27 3 view .LVU26
 136              		.loc 1 27 15 is_stmt 0 view .LVU27
 137 0000 0023     		movs	r3, #0
 138 0002 0375     		strb	r3, [r0, #20]
  28:Core/Src/hx711.c **** }
 139              		.loc 1 28 1 view .LVU28
 140 0004 7047     		bx	lr
 141              		.cfi_endproc
 142              	.LFE67:
 144              		.section	.text.hx711_value,"ax",%progbits
ARM GAS  /tmp/ccg70GTA.s 			page 4


 145              		.align	1
 146              		.global	hx711_value
 147              		.syntax unified
 148              		.thumb
 149              		.thumb_func
 151              	hx711_value:
 152              	.LVL8:
 153              	.LFB69:
  29:Core/Src/hx711.c **** //#############################################################################################
  30:Core/Src/hx711.c **** void hx711_init(hx711_t *hx711, GPIO_TypeDef *clk_gpio, uint16_t clk_pin, GPIO_TypeDef *dat_gpio, u
  31:Core/Src/hx711.c **** {
  32:Core/Src/hx711.c ****   hx711_lock(hx711);
  33:Core/Src/hx711.c ****   hx711->clk_gpio = clk_gpio;
  34:Core/Src/hx711.c ****   hx711->clk_pin = clk_pin;
  35:Core/Src/hx711.c ****   hx711->dat_gpio = dat_gpio;
  36:Core/Src/hx711.c ****   hx711->dat_pin = dat_pin;
  37:Core/Src/hx711.c ****   
  38:Core/Src/hx711.c ****   GPIO_InitTypeDef  gpio = {0};
  39:Core/Src/hx711.c ****   gpio.Mode = GPIO_MODE_OUTPUT_PP;
  40:Core/Src/hx711.c ****   gpio.Pull = GPIO_NOPULL;
  41:Core/Src/hx711.c ****   gpio.Speed = GPIO_SPEED_FREQ_HIGH;
  42:Core/Src/hx711.c ****   gpio.Pin = clk_pin;
  43:Core/Src/hx711.c ****   HAL_GPIO_Init(clk_gpio, &gpio);
  44:Core/Src/hx711.c ****   gpio.Mode = GPIO_MODE_INPUT;
  45:Core/Src/hx711.c ****   gpio.Pull = GPIO_PULLUP;
  46:Core/Src/hx711.c ****   gpio.Speed = GPIO_SPEED_FREQ_HIGH;
  47:Core/Src/hx711.c ****   gpio.Pin = dat_pin;
  48:Core/Src/hx711.c ****   HAL_GPIO_Init(dat_gpio, &gpio);
  49:Core/Src/hx711.c ****   HAL_GPIO_WritePin(hx711->clk_gpio, hx711->clk_pin, GPIO_PIN_SET);
  50:Core/Src/hx711.c ****   hx711_delay(10);
  51:Core/Src/hx711.c ****   HAL_GPIO_WritePin(hx711->clk_gpio, hx711->clk_pin, GPIO_PIN_RESET);
  52:Core/Src/hx711.c ****   hx711_delay(10);  
  53:Core/Src/hx711.c ****   hx711_value(hx711);
  54:Core/Src/hx711.c ****   hx711_value(hx711);
  55:Core/Src/hx711.c ****   hx711_unlock(hx711); 
  56:Core/Src/hx711.c **** }
  57:Core/Src/hx711.c **** //#############################################################################################
  58:Core/Src/hx711.c **** int32_t hx711_value(hx711_t *hx711)
  59:Core/Src/hx711.c **** {
 154              		.loc 1 59 1 is_stmt 1 view -0
 155              		.cfi_startproc
 156              		@ args = 0, pretend = 0, frame = 0
 157              		@ frame_needed = 0, uses_anonymous_args = 0
 158              		.loc 1 59 1 is_stmt 0 view .LVU30
 159 0000 70B5     		push	{r4, r5, r6, lr}
 160              		.cfi_def_cfa_offset 16
 161              		.cfi_offset 4, -16
 162              		.cfi_offset 5, -12
 163              		.cfi_offset 6, -8
 164              		.cfi_offset 14, -4
 165 0002 0446     		mov	r4, r0
  60:Core/Src/hx711.c ****   uint32_t data = 0;
 166              		.loc 1 60 3 is_stmt 1 view .LVU31
 167              	.LVL9:
  61:Core/Src/hx711.c ****   uint32_t startTime = HAL_GetTick();
 168              		.loc 1 61 3 view .LVU32
 169              		.loc 1 61 24 is_stmt 0 view .LVU33
ARM GAS  /tmp/ccg70GTA.s 			page 5


 170 0004 FFF7FEFF 		bl	HAL_GetTick
 171              	.LVL10:
 172              		.loc 1 61 24 view .LVU34
 173 0008 0546     		mov	r5, r0
 174              	.LVL11:
  62:Core/Src/hx711.c ****   while(HAL_GPIO_ReadPin(hx711->dat_gpio, hx711->dat_pin) == GPIO_PIN_SET)
 175              		.loc 1 62 3 is_stmt 1 view .LVU35
 176              	.L10:
 177              		.loc 1 62 59 view .LVU36
 178              		.loc 1 62 9 is_stmt 0 view .LVU37
 179 000a 6189     		ldrh	r1, [r4, #10]
 180 000c 6068     		ldr	r0, [r4, #4]
 181 000e FFF7FEFF 		bl	HAL_GPIO_ReadPin
 182              	.LVL12:
 183              		.loc 1 62 59 view .LVU38
 184 0012 0128     		cmp	r0, #1
 185 0014 09D1     		bne	.L18
  63:Core/Src/hx711.c ****   {
  64:Core/Src/hx711.c ****     hx711_delay(1);
 186              		.loc 1 64 5 is_stmt 1 view .LVU39
 187 0016 0120     		movs	r0, #1
 188 0018 FFF7FEFF 		bl	HAL_Delay
 189              	.LVL13:
  65:Core/Src/hx711.c ****     if(HAL_GetTick() - startTime > 150)
 190              		.loc 1 65 5 view .LVU40
 191              		.loc 1 65 8 is_stmt 0 view .LVU41
 192 001c FFF7FEFF 		bl	HAL_GetTick
 193              	.LVL14:
 194              		.loc 1 65 22 view .LVU42
 195 0020 401B     		subs	r0, r0, r5
 196              		.loc 1 65 7 view .LVU43
 197 0022 9628     		cmp	r0, #150
 198 0024 F1D9     		bls	.L10
  66:Core/Src/hx711.c ****       return 0;
 199              		.loc 1 66 14 view .LVU44
 200 0026 0020     		movs	r0, #0
 201 0028 2EE0     		b	.L9
 202              	.L18:
 203              	.LBB2:
  67:Core/Src/hx711.c ****   }
  68:Core/Src/hx711.c ****   for(int8_t i=0; i<24 ; i++)
 204              		.loc 1 68 14 view .LVU45
 205 002a 0025     		movs	r5, #0
 206              	.LVL15:
 207              		.loc 1 68 14 view .LVU46
 208              	.LBE2:
  60:Core/Src/hx711.c ****   uint32_t startTime = HAL_GetTick();
 209              		.loc 1 60 12 view .LVU47
 210 002c 2E46     		mov	r6, r5
 211 002e 01E0     		b	.L13
 212              	.LVL16:
 213              	.L14:
 214              	.LBB3:
 215              		.loc 1 68 27 is_stmt 1 discriminator 2 view .LVU48
 216 0030 0135     		adds	r5, r5, #1
 217              	.LVL17:
 218              		.loc 1 68 27 is_stmt 0 discriminator 2 view .LVU49
ARM GAS  /tmp/ccg70GTA.s 			page 6


 219 0032 6DB2     		sxtb	r5, r5
 220              	.LVL18:
 221              	.L13:
 222              		.loc 1 68 20 is_stmt 1 discriminator 1 view .LVU50
 223 0034 172D     		cmp	r5, #23
 224 0036 16DC     		bgt	.L19
  69:Core/Src/hx711.c ****   {
  70:Core/Src/hx711.c ****     HAL_GPIO_WritePin(hx711->clk_gpio, hx711->clk_pin, GPIO_PIN_SET);   
 225              		.loc 1 70 5 view .LVU51
 226 0038 0122     		movs	r2, #1
 227 003a 2189     		ldrh	r1, [r4, #8]
 228 003c 2068     		ldr	r0, [r4]
 229 003e FFF7FEFF 		bl	HAL_GPIO_WritePin
 230              	.LVL19:
  71:Core/Src/hx711.c ****     hx711_delay_us();
 231              		.loc 1 71 5 view .LVU52
 232 0042 FFF7FEFF 		bl	hx711_delay_us
 233              	.LVL20:
  72:Core/Src/hx711.c ****     HAL_GPIO_WritePin(hx711->clk_gpio, hx711->clk_pin, GPIO_PIN_RESET);
 234              		.loc 1 72 5 view .LVU53
 235 0046 0022     		movs	r2, #0
 236 0048 2189     		ldrh	r1, [r4, #8]
 237 004a 2068     		ldr	r0, [r4]
 238 004c FFF7FEFF 		bl	HAL_GPIO_WritePin
 239              	.LVL21:
  73:Core/Src/hx711.c ****     hx711_delay_us();
 240              		.loc 1 73 5 view .LVU54
 241 0050 FFF7FEFF 		bl	hx711_delay_us
 242              	.LVL22:
  74:Core/Src/hx711.c ****     data = data << 1;    
 243              		.loc 1 74 5 view .LVU55
 244              		.loc 1 74 10 is_stmt 0 view .LVU56
 245 0054 7600     		lsls	r6, r6, #1
 246              	.LVL23:
  75:Core/Src/hx711.c ****     if(HAL_GPIO_ReadPin(hx711->dat_gpio, hx711->dat_pin) == GPIO_PIN_SET)
 247              		.loc 1 75 5 is_stmt 1 view .LVU57
 248              		.loc 1 75 8 is_stmt 0 view .LVU58
 249 0056 6189     		ldrh	r1, [r4, #10]
 250 0058 6068     		ldr	r0, [r4, #4]
 251 005a FFF7FEFF 		bl	HAL_GPIO_ReadPin
 252              	.LVL24:
 253              		.loc 1 75 7 view .LVU59
 254 005e 0128     		cmp	r0, #1
 255 0060 E6D1     		bne	.L14
  76:Core/Src/hx711.c ****       data ++;
 256              		.loc 1 76 7 is_stmt 1 view .LVU60
 257              		.loc 1 76 12 is_stmt 0 view .LVU61
 258 0062 0136     		adds	r6, r6, #1
 259              	.LVL25:
 260              		.loc 1 76 12 view .LVU62
 261 0064 E4E7     		b	.L14
 262              	.L19:
 263              		.loc 1 76 12 view .LVU63
 264              	.LBE3:
  77:Core/Src/hx711.c ****   }
  78:Core/Src/hx711.c ****   data = data ^ 0x800000; 
 265              		.loc 1 78 3 is_stmt 1 view .LVU64
ARM GAS  /tmp/ccg70GTA.s 			page 7


 266              		.loc 1 78 8 is_stmt 0 view .LVU65
 267 0066 86F40006 		eor	r6, r6, #8388608
 268              	.LVL26:
  79:Core/Src/hx711.c ****   HAL_GPIO_WritePin(hx711->clk_gpio, hx711->clk_pin, GPIO_PIN_SET);   
 269              		.loc 1 79 3 is_stmt 1 view .LVU66
 270 006a 0122     		movs	r2, #1
 271 006c 2189     		ldrh	r1, [r4, #8]
 272 006e 2068     		ldr	r0, [r4]
 273 0070 FFF7FEFF 		bl	HAL_GPIO_WritePin
 274              	.LVL27:
  80:Core/Src/hx711.c ****   hx711_delay_us();
 275              		.loc 1 80 3 view .LVU67
 276 0074 FFF7FEFF 		bl	hx711_delay_us
 277              	.LVL28:
  81:Core/Src/hx711.c ****   HAL_GPIO_WritePin(hx711->clk_gpio, hx711->clk_pin, GPIO_PIN_RESET);
 278              		.loc 1 81 3 view .LVU68
 279 0078 0022     		movs	r2, #0
 280 007a 2189     		ldrh	r1, [r4, #8]
 281 007c 2068     		ldr	r0, [r4]
 282 007e FFF7FEFF 		bl	HAL_GPIO_WritePin
 283              	.LVL29:
  82:Core/Src/hx711.c ****   hx711_delay_us();
 284              		.loc 1 82 3 view .LVU69
 285 0082 FFF7FEFF 		bl	hx711_delay_us
 286              	.LVL30:
  83:Core/Src/hx711.c ****   return data;    
 287              		.loc 1 83 3 view .LVU70
 288              		.loc 1 83 10 is_stmt 0 view .LVU71
 289 0086 3046     		mov	r0, r6
 290              	.LVL31:
 291              	.L9:
  84:Core/Src/hx711.c **** }
 292              		.loc 1 84 1 view .LVU72
 293 0088 70BD     		pop	{r4, r5, r6, pc}
 294              		.loc 1 84 1 view .LVU73
 295              		.cfi_endproc
 296              	.LFE69:
 298              		.section	.text.hx711_init,"ax",%progbits
 299              		.align	1
 300              		.global	hx711_init
 301              		.syntax unified
 302              		.thumb
 303              		.thumb_func
 305              	hx711_init:
 306              	.LVL32:
 307              	.LFB68:
  31:Core/Src/hx711.c ****   hx711_lock(hx711);
 308              		.loc 1 31 1 is_stmt 1 view -0
 309              		.cfi_startproc
 310              		@ args = 4, pretend = 0, frame = 16
 311              		@ frame_needed = 0, uses_anonymous_args = 0
  31:Core/Src/hx711.c ****   hx711_lock(hx711);
 312              		.loc 1 31 1 is_stmt 0 view .LVU75
 313 0000 2DE9F04F 		push	{r4, r5, r6, r7, r8, r9, r10, fp, lr}
 314              		.cfi_def_cfa_offset 36
 315              		.cfi_offset 4, -36
 316              		.cfi_offset 5, -32
ARM GAS  /tmp/ccg70GTA.s 			page 8


 317              		.cfi_offset 6, -28
 318              		.cfi_offset 7, -24
 319              		.cfi_offset 8, -20
 320              		.cfi_offset 9, -16
 321              		.cfi_offset 10, -12
 322              		.cfi_offset 11, -8
 323              		.cfi_offset 14, -4
 324 0004 85B0     		sub	sp, sp, #20
 325              		.cfi_def_cfa_offset 56
 326 0006 0446     		mov	r4, r0
 327 0008 0F46     		mov	r7, r1
 328 000a 9046     		mov	r8, r2
 329 000c 1E46     		mov	r6, r3
 330 000e BDF838A0 		ldrh	r10, [sp, #56]
  32:Core/Src/hx711.c ****   hx711->clk_gpio = clk_gpio;
 331              		.loc 1 32 3 is_stmt 1 view .LVU76
 332 0012 FFF7FEFF 		bl	hx711_lock
 333              	.LVL33:
  33:Core/Src/hx711.c ****   hx711->clk_pin = clk_pin;
 334              		.loc 1 33 3 view .LVU77
  33:Core/Src/hx711.c ****   hx711->clk_pin = clk_pin;
 335              		.loc 1 33 19 is_stmt 0 view .LVU78
 336 0016 2760     		str	r7, [r4]
  34:Core/Src/hx711.c ****   hx711->dat_gpio = dat_gpio;
 337              		.loc 1 34 3 is_stmt 1 view .LVU79
  34:Core/Src/hx711.c ****   hx711->dat_gpio = dat_gpio;
 338              		.loc 1 34 18 is_stmt 0 view .LVU80
 339 0018 A4F80880 		strh	r8, [r4, #8]	@ movhi
  35:Core/Src/hx711.c ****   hx711->dat_pin = dat_pin;
 340              		.loc 1 35 3 is_stmt 1 view .LVU81
  35:Core/Src/hx711.c ****   hx711->dat_pin = dat_pin;
 341              		.loc 1 35 19 is_stmt 0 view .LVU82
 342 001c 6660     		str	r6, [r4, #4]
  36:Core/Src/hx711.c ****   
 343              		.loc 1 36 3 is_stmt 1 view .LVU83
  36:Core/Src/hx711.c ****   
 344              		.loc 1 36 18 is_stmt 0 view .LVU84
 345 001e A4F80AA0 		strh	r10, [r4, #10]	@ movhi
  38:Core/Src/hx711.c ****   gpio.Mode = GPIO_MODE_OUTPUT_PP;
 346              		.loc 1 38 3 is_stmt 1 view .LVU85
  38:Core/Src/hx711.c ****   gpio.Mode = GPIO_MODE_OUTPUT_PP;
 347              		.loc 1 38 21 is_stmt 0 view .LVU86
 348 0022 0025     		movs	r5, #0
 349 0024 0095     		str	r5, [sp]
 350 0026 0195     		str	r5, [sp, #4]
 351 0028 0295     		str	r5, [sp, #8]
 352 002a 0395     		str	r5, [sp, #12]
  39:Core/Src/hx711.c ****   gpio.Pull = GPIO_NOPULL;
 353              		.loc 1 39 3 is_stmt 1 view .LVU87
  39:Core/Src/hx711.c ****   gpio.Pull = GPIO_NOPULL;
 354              		.loc 1 39 13 is_stmt 0 view .LVU88
 355 002c 4FF00109 		mov	r9, #1
 356 0030 CDF80490 		str	r9, [sp, #4]
  40:Core/Src/hx711.c ****   gpio.Speed = GPIO_SPEED_FREQ_HIGH;
 357              		.loc 1 40 3 is_stmt 1 view .LVU89
  41:Core/Src/hx711.c ****   gpio.Pin = clk_pin;
 358              		.loc 1 41 3 view .LVU90
ARM GAS  /tmp/ccg70GTA.s 			page 9


  41:Core/Src/hx711.c ****   gpio.Pin = clk_pin;
 359              		.loc 1 41 14 is_stmt 0 view .LVU91
 360 0034 4FF0030B 		mov	fp, #3
 361 0038 CDF80CB0 		str	fp, [sp, #12]
  42:Core/Src/hx711.c ****   HAL_GPIO_Init(clk_gpio, &gpio);
 362              		.loc 1 42 3 is_stmt 1 view .LVU92
  42:Core/Src/hx711.c ****   HAL_GPIO_Init(clk_gpio, &gpio);
 363              		.loc 1 42 12 is_stmt 0 view .LVU93
 364 003c CDF80080 		str	r8, [sp]
  43:Core/Src/hx711.c ****   gpio.Mode = GPIO_MODE_INPUT;
 365              		.loc 1 43 3 is_stmt 1 view .LVU94
 366 0040 6946     		mov	r1, sp
 367 0042 3846     		mov	r0, r7
 368 0044 FFF7FEFF 		bl	HAL_GPIO_Init
 369              	.LVL34:
  44:Core/Src/hx711.c ****   gpio.Pull = GPIO_PULLUP;
 370              		.loc 1 44 3 view .LVU95
  44:Core/Src/hx711.c ****   gpio.Pull = GPIO_PULLUP;
 371              		.loc 1 44 13 is_stmt 0 view .LVU96
 372 0048 0195     		str	r5, [sp, #4]
  45:Core/Src/hx711.c ****   gpio.Speed = GPIO_SPEED_FREQ_HIGH;
 373              		.loc 1 45 3 is_stmt 1 view .LVU97
  45:Core/Src/hx711.c ****   gpio.Speed = GPIO_SPEED_FREQ_HIGH;
 374              		.loc 1 45 13 is_stmt 0 view .LVU98
 375 004a CDF80890 		str	r9, [sp, #8]
  46:Core/Src/hx711.c ****   gpio.Pin = dat_pin;
 376              		.loc 1 46 3 is_stmt 1 view .LVU99
  46:Core/Src/hx711.c ****   gpio.Pin = dat_pin;
 377              		.loc 1 46 14 is_stmt 0 view .LVU100
 378 004e CDF80CB0 		str	fp, [sp, #12]
  47:Core/Src/hx711.c ****   HAL_GPIO_Init(dat_gpio, &gpio);
 379              		.loc 1 47 3 is_stmt 1 view .LVU101
  47:Core/Src/hx711.c ****   HAL_GPIO_Init(dat_gpio, &gpio);
 380              		.loc 1 47 12 is_stmt 0 view .LVU102
 381 0052 CDF800A0 		str	r10, [sp]
  48:Core/Src/hx711.c ****   HAL_GPIO_WritePin(hx711->clk_gpio, hx711->clk_pin, GPIO_PIN_SET);
 382              		.loc 1 48 3 is_stmt 1 view .LVU103
 383 0056 6946     		mov	r1, sp
 384 0058 3046     		mov	r0, r6
 385 005a FFF7FEFF 		bl	HAL_GPIO_Init
 386              	.LVL35:
  49:Core/Src/hx711.c ****   hx711_delay(10);
 387              		.loc 1 49 3 view .LVU104
 388 005e 4A46     		mov	r2, r9
 389 0060 2189     		ldrh	r1, [r4, #8]
 390 0062 2068     		ldr	r0, [r4]
 391 0064 FFF7FEFF 		bl	HAL_GPIO_WritePin
 392              	.LVL36:
  50:Core/Src/hx711.c ****   HAL_GPIO_WritePin(hx711->clk_gpio, hx711->clk_pin, GPIO_PIN_RESET);
 393              		.loc 1 50 3 view .LVU105
 394 0068 0A20     		movs	r0, #10
 395 006a FFF7FEFF 		bl	HAL_Delay
 396              	.LVL37:
  51:Core/Src/hx711.c ****   hx711_delay(10);  
 397              		.loc 1 51 3 view .LVU106
 398 006e 2A46     		mov	r2, r5
 399 0070 2189     		ldrh	r1, [r4, #8]
ARM GAS  /tmp/ccg70GTA.s 			page 10


 400 0072 2068     		ldr	r0, [r4]
 401 0074 FFF7FEFF 		bl	HAL_GPIO_WritePin
 402              	.LVL38:
  52:Core/Src/hx711.c ****   hx711_value(hx711);
 403              		.loc 1 52 3 view .LVU107
 404 0078 0A20     		movs	r0, #10
 405 007a FFF7FEFF 		bl	HAL_Delay
 406              	.LVL39:
  53:Core/Src/hx711.c ****   hx711_value(hx711);
 407              		.loc 1 53 3 view .LVU108
 408 007e 2046     		mov	r0, r4
 409 0080 FFF7FEFF 		bl	hx711_value
 410              	.LVL40:
  54:Core/Src/hx711.c ****   hx711_unlock(hx711); 
 411              		.loc 1 54 3 view .LVU109
 412 0084 2046     		mov	r0, r4
 413 0086 FFF7FEFF 		bl	hx711_value
 414              	.LVL41:
  55:Core/Src/hx711.c **** }
 415              		.loc 1 55 3 view .LVU110
 416 008a 2046     		mov	r0, r4
 417 008c FFF7FEFF 		bl	hx711_unlock
 418              	.LVL42:
  56:Core/Src/hx711.c **** //#############################################################################################
 419              		.loc 1 56 1 is_stmt 0 view .LVU111
 420 0090 05B0     		add	sp, sp, #20
 421              		.cfi_def_cfa_offset 36
 422              		@ sp needed
 423 0092 BDE8F08F 		pop	{r4, r5, r6, r7, r8, r9, r10, fp, pc}
  56:Core/Src/hx711.c **** //#############################################################################################
 424              		.loc 1 56 1 view .LVU112
 425              		.cfi_endproc
 426              	.LFE68:
 428              		.global	__aeabi_ldivmod
 429              		.section	.text.hx711_value_ave,"ax",%progbits
 430              		.align	1
 431              		.global	hx711_value_ave
 432              		.syntax unified
 433              		.thumb
 434              		.thumb_func
 436              	hx711_value_ave:
 437              	.LVL43:
 438              	.LFB70:
  85:Core/Src/hx711.c **** //#############################################################################################
  86:Core/Src/hx711.c **** int32_t hx711_value_ave(hx711_t *hx711, uint16_t sample)
  87:Core/Src/hx711.c **** {
 439              		.loc 1 87 1 is_stmt 1 view -0
 440              		.cfi_startproc
 441              		@ args = 0, pretend = 0, frame = 0
 442              		@ frame_needed = 0, uses_anonymous_args = 0
 443              		.loc 1 87 1 is_stmt 0 view .LVU114
 444 0000 2DE9F041 		push	{r4, r5, r6, r7, r8, lr}
 445              		.cfi_def_cfa_offset 24
 446              		.cfi_offset 4, -24
 447              		.cfi_offset 5, -20
 448              		.cfi_offset 6, -16
 449              		.cfi_offset 7, -12
ARM GAS  /tmp/ccg70GTA.s 			page 11


 450              		.cfi_offset 8, -8
 451              		.cfi_offset 14, -4
 452 0004 8046     		mov	r8, r0
 453 0006 0F46     		mov	r7, r1
  88:Core/Src/hx711.c ****   hx711_lock(hx711);
 454              		.loc 1 88 3 is_stmt 1 view .LVU115
 455 0008 FFF7FEFF 		bl	hx711_lock
 456              	.LVL44:
  89:Core/Src/hx711.c ****   int64_t  ave = 0;
 457              		.loc 1 89 3 view .LVU116
  90:Core/Src/hx711.c ****   for(uint16_t i=0 ; i<sample ; i++)
 458              		.loc 1 90 3 view .LVU117
 459              	.LBB4:
 460              		.loc 1 90 7 view .LVU118
 461              		.loc 1 90 16 is_stmt 0 view .LVU119
 462 000c 0024     		movs	r4, #0
 463              	.LBE4:
  89:Core/Src/hx711.c ****   int64_t  ave = 0;
 464              		.loc 1 89 12 view .LVU120
 465 000e 2546     		mov	r5, r4
 466 0010 2646     		mov	r6, r4
 467              	.LBB5:
 468              		.loc 1 90 3 view .LVU121
 469 0012 0AE0     		b	.L23
 470              	.LVL45:
 471              	.L24:
  91:Core/Src/hx711.c ****   {
  92:Core/Src/hx711.c ****     ave += hx711_value(hx711);
 472              		.loc 1 92 5 is_stmt 1 discriminator 3 view .LVU122
 473              		.loc 1 92 12 is_stmt 0 discriminator 3 view .LVU123
 474 0014 4046     		mov	r0, r8
 475 0016 FFF7FEFF 		bl	hx711_value
 476              	.LVL46:
 477              		.loc 1 92 9 discriminator 3 view .LVU124
 478 001a 4519     		adds	r5, r0, r5
 479              	.LVL47:
 480              		.loc 1 92 9 discriminator 3 view .LVU125
 481 001c 46EBE076 		adc	r6, r6, r0, asr #31
 482              	.LVL48:
  93:Core/Src/hx711.c ****     hx711_delay(5);
 483              		.loc 1 93 5 is_stmt 1 discriminator 3 view .LVU126
 484 0020 0520     		movs	r0, #5
 485 0022 FFF7FEFF 		bl	HAL_Delay
 486              	.LVL49:
  90:Core/Src/hx711.c ****   for(uint16_t i=0 ; i<sample ; i++)
 487              		.loc 1 90 34 discriminator 3 view .LVU127
 488 0026 0134     		adds	r4, r4, #1
 489              	.LVL50:
  90:Core/Src/hx711.c ****   for(uint16_t i=0 ; i<sample ; i++)
 490              		.loc 1 90 34 is_stmt 0 discriminator 3 view .LVU128
 491 0028 A4B2     		uxth	r4, r4
 492              	.LVL51:
 493              	.L23:
  90:Core/Src/hx711.c ****   for(uint16_t i=0 ; i<sample ; i++)
 494              		.loc 1 90 23 is_stmt 1 discriminator 1 view .LVU129
 495 002a BC42     		cmp	r4, r7
 496 002c F2D3     		bcc	.L24
ARM GAS  /tmp/ccg70GTA.s 			page 12


 497              	.LBE5:
  94:Core/Src/hx711.c ****   }
  95:Core/Src/hx711.c ****   int32_t answer = (int32_t)(ave / sample);
 498              		.loc 1 95 3 view .LVU130
 499              		.loc 1 95 34 is_stmt 0 view .LVU131
 500 002e 3A46     		mov	r2, r7
 501 0030 0023     		movs	r3, #0
 502 0032 2846     		mov	r0, r5
 503 0034 3146     		mov	r1, r6
 504 0036 FFF7FEFF 		bl	__aeabi_ldivmod
 505              	.LVL52:
 506 003a 0446     		mov	r4, r0
 507              	.LVL53:
  96:Core/Src/hx711.c ****   hx711_unlock(hx711);
 508              		.loc 1 96 3 is_stmt 1 view .LVU132
 509 003c 4046     		mov	r0, r8
 510              	.LVL54:
 511              		.loc 1 96 3 is_stmt 0 view .LVU133
 512 003e FFF7FEFF 		bl	hx711_unlock
 513              	.LVL55:
  97:Core/Src/hx711.c ****   return answer;
 514              		.loc 1 97 3 is_stmt 1 view .LVU134
  98:Core/Src/hx711.c **** }
 515              		.loc 1 98 1 is_stmt 0 view .LVU135
 516 0042 2046     		mov	r0, r4
 517 0044 BDE8F081 		pop	{r4, r5, r6, r7, r8, pc}
 518              		.loc 1 98 1 view .LVU136
 519              		.cfi_endproc
 520              	.LFE70:
 522              		.section	.text.hx711_tare,"ax",%progbits
 523              		.align	1
 524              		.global	hx711_tare
 525              		.syntax unified
 526              		.thumb
 527              		.thumb_func
 529              	hx711_tare:
 530              	.LVL56:
 531              	.LFB71:
  99:Core/Src/hx711.c **** //#############################################################################################
 100:Core/Src/hx711.c **** void hx711_tare(hx711_t *hx711, uint16_t sample)
 101:Core/Src/hx711.c **** {
 532              		.loc 1 101 1 is_stmt 1 view -0
 533              		.cfi_startproc
 534              		@ args = 0, pretend = 0, frame = 0
 535              		@ frame_needed = 0, uses_anonymous_args = 0
 536              		.loc 1 101 1 is_stmt 0 view .LVU138
 537 0000 2DE9F041 		push	{r4, r5, r6, r7, r8, lr}
 538              		.cfi_def_cfa_offset 24
 539              		.cfi_offset 4, -24
 540              		.cfi_offset 5, -20
 541              		.cfi_offset 6, -16
 542              		.cfi_offset 7, -12
 543              		.cfi_offset 8, -8
 544              		.cfi_offset 14, -4
 545 0004 0746     		mov	r7, r0
 546 0006 8846     		mov	r8, r1
 102:Core/Src/hx711.c ****   hx711_lock(hx711);
ARM GAS  /tmp/ccg70GTA.s 			page 13


 547              		.loc 1 102 3 is_stmt 1 view .LVU139
 548 0008 FFF7FEFF 		bl	hx711_lock
 549              	.LVL57:
 103:Core/Src/hx711.c ****   int64_t  ave = 0;
 550              		.loc 1 103 3 view .LVU140
 104:Core/Src/hx711.c ****   for(uint16_t i=0 ; i<sample ; i++)
 551              		.loc 1 104 3 view .LVU141
 552              	.LBB6:
 553              		.loc 1 104 7 view .LVU142
 554              		.loc 1 104 16 is_stmt 0 view .LVU143
 555 000c 0024     		movs	r4, #0
 556              	.LBE6:
 103:Core/Src/hx711.c ****   int64_t  ave = 0;
 557              		.loc 1 103 12 view .LVU144
 558 000e 2546     		mov	r5, r4
 559 0010 2646     		mov	r6, r4
 560              	.LBB7:
 561              		.loc 1 104 3 view .LVU145
 562 0012 0AE0     		b	.L27
 563              	.LVL58:
 564              	.L28:
 105:Core/Src/hx711.c ****   {
 106:Core/Src/hx711.c ****     ave += hx711_value(hx711);
 565              		.loc 1 106 5 is_stmt 1 discriminator 3 view .LVU146
 566              		.loc 1 106 12 is_stmt 0 discriminator 3 view .LVU147
 567 0014 3846     		mov	r0, r7
 568 0016 FFF7FEFF 		bl	hx711_value
 569              	.LVL59:
 570              		.loc 1 106 9 discriminator 3 view .LVU148
 571 001a 4519     		adds	r5, r0, r5
 572              	.LVL60:
 573              		.loc 1 106 9 discriminator 3 view .LVU149
 574 001c 46EBE076 		adc	r6, r6, r0, asr #31
 575              	.LVL61:
 107:Core/Src/hx711.c ****     hx711_delay(5);
 576              		.loc 1 107 5 is_stmt 1 discriminator 3 view .LVU150
 577 0020 0520     		movs	r0, #5
 578 0022 FFF7FEFF 		bl	HAL_Delay
 579              	.LVL62:
 104:Core/Src/hx711.c ****   for(uint16_t i=0 ; i<sample ; i++)
 580              		.loc 1 104 34 discriminator 3 view .LVU151
 581 0026 0134     		adds	r4, r4, #1
 582              	.LVL63:
 104:Core/Src/hx711.c ****   for(uint16_t i=0 ; i<sample ; i++)
 583              		.loc 1 104 34 is_stmt 0 discriminator 3 view .LVU152
 584 0028 A4B2     		uxth	r4, r4
 585              	.LVL64:
 586              	.L27:
 104:Core/Src/hx711.c ****   for(uint16_t i=0 ; i<sample ; i++)
 587              		.loc 1 104 23 is_stmt 1 discriminator 1 view .LVU153
 588 002a 4445     		cmp	r4, r8
 589 002c F2D3     		bcc	.L28
 590              	.LBE7:
 108:Core/Src/hx711.c ****   }
 109:Core/Src/hx711.c ****   hx711->offset = (int32_t)(ave / sample);
 591              		.loc 1 109 3 view .LVU154
 592              		.loc 1 109 33 is_stmt 0 view .LVU155
ARM GAS  /tmp/ccg70GTA.s 			page 14


 593 002e 4246     		mov	r2, r8
 594 0030 0023     		movs	r3, #0
 595 0032 2846     		mov	r0, r5
 596 0034 3146     		mov	r1, r6
 597 0036 FFF7FEFF 		bl	__aeabi_ldivmod
 598              	.LVL65:
 599              		.loc 1 109 17 view .LVU156
 600 003a F860     		str	r0, [r7, #12]
 110:Core/Src/hx711.c ****   hx711_unlock(hx711);
 601              		.loc 1 110 3 is_stmt 1 view .LVU157
 602 003c 3846     		mov	r0, r7
 603 003e FFF7FEFF 		bl	hx711_unlock
 604              	.LVL66:
 111:Core/Src/hx711.c **** }
 605              		.loc 1 111 1 is_stmt 0 view .LVU158
 606 0042 BDE8F081 		pop	{r4, r5, r6, r7, r8, pc}
 607              		.loc 1 111 1 view .LVU159
 608              		.cfi_endproc
 609              	.LFE71:
 611              		.global	__aeabi_i2f
 612              		.global	__aeabi_fdiv
 613              		.section	.text.hx711_calibration,"ax",%progbits
 614              		.align	1
 615              		.global	hx711_calibration
 616              		.syntax unified
 617              		.thumb
 618              		.thumb_func
 620              	hx711_calibration:
 621              	.LVL67:
 622              	.LFB72:
 112:Core/Src/hx711.c **** //#############################################################################################
 113:Core/Src/hx711.c **** void hx711_calibration(hx711_t *hx711, int32_t noload_raw, int32_t load_raw, float scale)
 114:Core/Src/hx711.c **** {
 623              		.loc 1 114 1 is_stmt 1 view -0
 624              		.cfi_startproc
 625              		@ args = 0, pretend = 0, frame = 0
 626              		@ frame_needed = 0, uses_anonymous_args = 0
 627              		.loc 1 114 1 is_stmt 0 view .LVU161
 628 0000 F8B5     		push	{r3, r4, r5, r6, r7, lr}
 629              		.cfi_def_cfa_offset 24
 630              		.cfi_offset 3, -24
 631              		.cfi_offset 4, -20
 632              		.cfi_offset 5, -16
 633              		.cfi_offset 6, -12
 634              		.cfi_offset 7, -8
 635              		.cfi_offset 14, -4
 636 0002 0446     		mov	r4, r0
 637 0004 0D46     		mov	r5, r1
 638 0006 1746     		mov	r7, r2
 639 0008 1E46     		mov	r6, r3
 115:Core/Src/hx711.c ****   hx711_lock(hx711);
 640              		.loc 1 115 3 is_stmt 1 view .LVU162
 641 000a FFF7FEFF 		bl	hx711_lock
 642              	.LVL68:
 116:Core/Src/hx711.c ****   hx711->offset = noload_raw;
 643              		.loc 1 116 3 view .LVU163
 644              		.loc 1 116 17 is_stmt 0 view .LVU164
ARM GAS  /tmp/ccg70GTA.s 			page 15


 645 000e E560     		str	r5, [r4, #12]
 117:Core/Src/hx711.c ****   hx711->coef = (load_raw - noload_raw) / scale;  
 646              		.loc 1 117 3 is_stmt 1 view .LVU165
 647              		.loc 1 117 41 is_stmt 0 view .LVU166
 648 0010 781B     		subs	r0, r7, r5
 649 0012 FFF7FEFF 		bl	__aeabi_i2f
 650              	.LVL69:
 651 0016 3146     		mov	r1, r6
 652 0018 FFF7FEFF 		bl	__aeabi_fdiv
 653              	.LVL70:
 654              		.loc 1 117 15 view .LVU167
 655 001c 2061     		str	r0, [r4, #16]	@ float
 118:Core/Src/hx711.c ****   hx711_unlock(hx711);
 656              		.loc 1 118 3 is_stmt 1 view .LVU168
 657 001e 2046     		mov	r0, r4
 658 0020 FFF7FEFF 		bl	hx711_unlock
 659              	.LVL71:
 119:Core/Src/hx711.c **** }
 660              		.loc 1 119 1 is_stmt 0 view .LVU169
 661 0024 F8BD     		pop	{r3, r4, r5, r6, r7, pc}
 662              		.loc 1 119 1 view .LVU170
 663              		.cfi_endproc
 664              	.LFE72:
 666              		.section	.text.hx711_weight,"ax",%progbits
 667              		.align	1
 668              		.global	hx711_weight
 669              		.syntax unified
 670              		.thumb
 671              		.thumb_func
 673              	hx711_weight:
 674              	.LVL72:
 675              	.LFB73:
 120:Core/Src/hx711.c **** //#############################################################################################
 121:Core/Src/hx711.c **** float hx711_weight(hx711_t *hx711)
 122:Core/Src/hx711.c **** {
 676              		.loc 1 122 1 is_stmt 1 view -0
 677              		.cfi_startproc
 678              		@ args = 0, pretend = 0, frame = 0
 679              		@ frame_needed = 0, uses_anonymous_args = 0
 680              		.loc 1 122 1 is_stmt 0 view .LVU172
 681 0000 38B5     		push	{r3, r4, r5, lr}
 682              		.cfi_def_cfa_offset 16
 683              		.cfi_offset 3, -16
 684              		.cfi_offset 4, -12
 685              		.cfi_offset 5, -8
 686              		.cfi_offset 14, -4
 687 0002 0446     		mov	r4, r0
 123:Core/Src/hx711.c ****   hx711_lock(hx711);
 688              		.loc 1 123 3 is_stmt 1 view .LVU173
 689 0004 FFF7FEFF 		bl	hx711_lock
 690              	.LVL73:
 124:Core/Src/hx711.c ****   int32_t data = hx711_value(hx711);
 691              		.loc 1 124 3 view .LVU174
 692              		.loc 1 124 18 is_stmt 0 view .LVU175
 693 0008 2046     		mov	r0, r4
 694 000a FFF7FEFF 		bl	hx711_value
 695              	.LVL74:
ARM GAS  /tmp/ccg70GTA.s 			page 16


 125:Core/Src/hx711.c ****   float answer =  (data - hx711->offset) / hx711->coef;
 696              		.loc 1 125 3 is_stmt 1 view .LVU176
 697              		.loc 1 125 32 is_stmt 0 view .LVU177
 698 000e E368     		ldr	r3, [r4, #12]
 699              		.loc 1 125 42 view .LVU178
 700 0010 C01A     		subs	r0, r0, r3
 701              	.LVL75:
 702              		.loc 1 125 42 view .LVU179
 703 0012 FFF7FEFF 		bl	__aeabi_i2f
 704              	.LVL76:
 705              		.loc 1 125 9 view .LVU180
 706 0016 2169     		ldr	r1, [r4, #16]	@ float
 707 0018 FFF7FEFF 		bl	__aeabi_fdiv
 708              	.LVL77:
 709 001c 0546     		mov	r5, r0
 710              	.LVL78:
 126:Core/Src/hx711.c ****   hx711_unlock(hx711);
 711              		.loc 1 126 3 is_stmt 1 view .LVU181
 712 001e 2046     		mov	r0, r4
 713              	.LVL79:
 714              		.loc 1 126 3 is_stmt 0 view .LVU182
 715 0020 FFF7FEFF 		bl	hx711_unlock
 716              	.LVL80:
 127:Core/Src/hx711.c ****   return answer;
 717              		.loc 1 127 3 is_stmt 1 view .LVU183
 128:Core/Src/hx711.c **** }
 718              		.loc 1 128 1 is_stmt 0 view .LVU184
 719 0024 2846     		mov	r0, r5
 720 0026 38BD     		pop	{r3, r4, r5, pc}
 721              		.loc 1 128 1 view .LVU185
 722              		.cfi_endproc
 723              	.LFE73:
 725              		.section	.text.hx711_coef_set,"ax",%progbits
 726              		.align	1
 727              		.global	hx711_coef_set
 728              		.syntax unified
 729              		.thumb
 730              		.thumb_func
 732              	hx711_coef_set:
 733              	.LVL81:
 734              	.LFB74:
 129:Core/Src/hx711.c **** //#############################################################################################
 130:Core/Src/hx711.c **** void hx711_coef_set(hx711_t *hx711, float coef)
 131:Core/Src/hx711.c **** {
 735              		.loc 1 131 1 is_stmt 1 view -0
 736              		.cfi_startproc
 737              		@ args = 0, pretend = 0, frame = 0
 738              		@ frame_needed = 0, uses_anonymous_args = 0
 739              		@ link register save eliminated.
 132:Core/Src/hx711.c ****   hx711->coef = coef;  
 740              		.loc 1 132 3 view .LVU187
 741              		.loc 1 132 15 is_stmt 0 view .LVU188
 742 0000 0161     		str	r1, [r0, #16]	@ float
 133:Core/Src/hx711.c **** }
 743              		.loc 1 133 1 view .LVU189
 744 0002 7047     		bx	lr
 745              		.cfi_endproc
ARM GAS  /tmp/ccg70GTA.s 			page 17


 746              	.LFE74:
 748              		.section	.text.hx711_coef_get,"ax",%progbits
 749              		.align	1
 750              		.global	hx711_coef_get
 751              		.syntax unified
 752              		.thumb
 753              		.thumb_func
 755              	hx711_coef_get:
 756              	.LVL82:
 757              	.LFB75:
 134:Core/Src/hx711.c **** //#############################################################################################
 135:Core/Src/hx711.c **** float hx711_coef_get(hx711_t *hx711)
 136:Core/Src/hx711.c **** {
 758              		.loc 1 136 1 is_stmt 1 view -0
 759              		.cfi_startproc
 760              		@ args = 0, pretend = 0, frame = 0
 761              		@ frame_needed = 0, uses_anonymous_args = 0
 762              		@ link register save eliminated.
 137:Core/Src/hx711.c ****   return hx711->coef;  
 763              		.loc 1 137 3 view .LVU191
 138:Core/Src/hx711.c **** }
 764              		.loc 1 138 1 is_stmt 0 view .LVU192
 765 0000 0069     		ldr	r0, [r0, #16]	@ float
 766              	.LVL83:
 767              		.loc 1 138 1 view .LVU193
 768 0002 7047     		bx	lr
 769              		.cfi_endproc
 770              	.LFE75:
 772              		.section	.text.hx711_power_down,"ax",%progbits
 773              		.align	1
 774              		.global	hx711_power_down
 775              		.syntax unified
 776              		.thumb
 777              		.thumb_func
 779              	hx711_power_down:
 780              	.LVL84:
 781              	.LFB76:
 139:Core/Src/hx711.c **** //#############################################################################################
 140:Core/Src/hx711.c **** void hx711_power_down(hx711_t *hx711)
 141:Core/Src/hx711.c **** {
 782              		.loc 1 141 1 is_stmt 1 view -0
 783              		.cfi_startproc
 784              		@ args = 0, pretend = 0, frame = 0
 785              		@ frame_needed = 0, uses_anonymous_args = 0
 786              		.loc 1 141 1 is_stmt 0 view .LVU195
 787 0000 10B5     		push	{r4, lr}
 788              		.cfi_def_cfa_offset 8
 789              		.cfi_offset 4, -8
 790              		.cfi_offset 14, -4
 791 0002 0446     		mov	r4, r0
 142:Core/Src/hx711.c ****   HAL_GPIO_WritePin(hx711->clk_gpio, hx711->clk_pin, GPIO_PIN_RESET);
 792              		.loc 1 142 3 is_stmt 1 view .LVU196
 793 0004 0022     		movs	r2, #0
 794 0006 0189     		ldrh	r1, [r0, #8]
 795 0008 0068     		ldr	r0, [r0]
 796              	.LVL85:
 797              		.loc 1 142 3 is_stmt 0 view .LVU197
ARM GAS  /tmp/ccg70GTA.s 			page 18


 798 000a FFF7FEFF 		bl	HAL_GPIO_WritePin
 799              	.LVL86:
 143:Core/Src/hx711.c ****   HAL_GPIO_WritePin(hx711->clk_gpio, hx711->clk_pin, GPIO_PIN_SET);
 800              		.loc 1 143 3 is_stmt 1 view .LVU198
 801 000e 0122     		movs	r2, #1
 802 0010 2189     		ldrh	r1, [r4, #8]
 803 0012 2068     		ldr	r0, [r4]
 804 0014 FFF7FEFF 		bl	HAL_GPIO_WritePin
 805              	.LVL87:
 144:Core/Src/hx711.c ****   hx711_delay(1);  
 806              		.loc 1 144 3 view .LVU199
 807 0018 0120     		movs	r0, #1
 808 001a FFF7FEFF 		bl	HAL_Delay
 809              	.LVL88:
 145:Core/Src/hx711.c **** }
 810              		.loc 1 145 1 is_stmt 0 view .LVU200
 811 001e 10BD     		pop	{r4, pc}
 812              		.loc 1 145 1 view .LVU201
 813              		.cfi_endproc
 814              	.LFE76:
 816              		.section	.text.hx711_power_up,"ax",%progbits
 817              		.align	1
 818              		.global	hx711_power_up
 819              		.syntax unified
 820              		.thumb
 821              		.thumb_func
 823              	hx711_power_up:
 824              	.LVL89:
 825              	.LFB77:
 146:Core/Src/hx711.c **** //#############################################################################################
 147:Core/Src/hx711.c **** void hx711_power_up(hx711_t *hx711)
 148:Core/Src/hx711.c **** {
 826              		.loc 1 148 1 is_stmt 1 view -0
 827              		.cfi_startproc
 828              		@ args = 0, pretend = 0, frame = 0
 829              		@ frame_needed = 0, uses_anonymous_args = 0
 830              		.loc 1 148 1 is_stmt 0 view .LVU203
 831 0000 08B5     		push	{r3, lr}
 832              		.cfi_def_cfa_offset 8
 833              		.cfi_offset 3, -8
 834              		.cfi_offset 14, -4
 149:Core/Src/hx711.c ****   HAL_GPIO_WritePin(hx711->clk_gpio, hx711->clk_pin, GPIO_PIN_RESET);
 835              		.loc 1 149 3 is_stmt 1 view .LVU204
 836 0002 0022     		movs	r2, #0
 837 0004 0189     		ldrh	r1, [r0, #8]
 838 0006 0068     		ldr	r0, [r0]
 839              	.LVL90:
 840              		.loc 1 149 3 is_stmt 0 view .LVU205
 841 0008 FFF7FEFF 		bl	HAL_GPIO_WritePin
 842              	.LVL91:
 150:Core/Src/hx711.c **** }
 843              		.loc 1 150 1 view .LVU206
 844 000c 08BD     		pop	{r3, pc}
 845              		.cfi_endproc
 846              	.LFE77:
 848              		.text
 849              	.Letext0:
ARM GAS  /tmp/ccg70GTA.s 			page 19


 850              		.file 2 "/home/jack/.config/Code - OSS/User/globalStorage/bmd.stm32-for-vscode/@xpack-dev-tools/ar
 851              		.file 3 "/home/jack/.config/Code - OSS/User/globalStorage/bmd.stm32-for-vscode/@xpack-dev-tools/ar
 852              		.file 4 "Drivers/CMSIS/Device/ST/STM32F1xx/Include/stm32f103xb.h"
 853              		.file 5 "Drivers/STM32F1xx_HAL_Driver/Inc/stm32f1xx_hal_gpio.h"
 854              		.file 6 "Core/Inc/hx711.h"
 855              		.file 7 "Drivers/STM32F1xx_HAL_Driver/Inc/stm32f1xx_hal.h"
ARM GAS  /tmp/ccg70GTA.s 			page 20

