ARM GAS  /tmp/ccYP6Ns3.s 			page 1


   1              		.cpu cortex-m3
   2              		.arch armv7-m
   3              		.fpu softvfp
   4              		.eabi_attribute 20, 1
   5              		.eabi_attribute 21, 1
   6              		.eabi_attribute 23, 3
   7              		.eabi_attribute 24, 1
   8              		.eabi_attribute 25, 1
   9              		.eabi_attribute 26, 1
  10              		.eabi_attribute 30, 1
  11              		.eabi_attribute 34, 1
  12              		.eabi_attribute 18, 4
  13              		.file	"segment.c"
  14              		.text
  15              	.Ltext0:
  16              		.cfi_sections	.debug_frame
  17              		.section	.text.seg_set_value,"ax",%progbits
  18              		.align	1
  19              		.global	seg_set_value
  20              		.syntax unified
  21              		.thumb
  22              		.thumb_func
  24              	seg_set_value:
  25              	.LVL0:
  26              	.LFB65:
  27              		.file 1 "Core/Src/segment.c"
   1:Core/Src/segment.c **** #include "segment.h"
   2:Core/Src/segment.c **** #define NUM_SEGMENTS 4
   3:Core/Src/segment.c **** 
   4:Core/Src/segment.c **** uint8_t segments[NUM_SEGMENTS];
   5:Core/Src/segment.c **** 
   6:Core/Src/segment.c **** uint8_t current_seg;
   7:Core/Src/segment.c **** 
   8:Core/Src/segment.c **** struct GPIO_Pin_t {
   9:Core/Src/segment.c ****     GPIO_TypeDef * port;
  10:Core/Src/segment.c ****     uint16_t pin;
  11:Core/Src/segment.c **** };
  12:Core/Src/segment.c **** 
  13:Core/Src/segment.c **** struct GPIO_Pin_t digit_pins[NUM_SEGMENTS] = {
  14:Core/Src/segment.c ****     {DIG_0_GPIO_Port, DIG_0_Pin},
  15:Core/Src/segment.c ****     {DIG_1_GPIO_Port, DIG_1_Pin},
  16:Core/Src/segment.c ****     {DIG_2_GPIO_Port, DIG_2_Pin},
  17:Core/Src/segment.c ****     {DIG_3_GPIO_Port, DIG_3_Pin},
  18:Core/Src/segment.c **** };
  19:Core/Src/segment.c **** 
  20:Core/Src/segment.c **** struct GPIO_Pin_t segment_pins[8] = {
  21:Core/Src/segment.c ****     {SEG_DP_GPIO_Port, SEG_DP_Pin},
  22:Core/Src/segment.c ****     {SEG_G_GPIO_Port, SEG_G_Pin},
  23:Core/Src/segment.c ****     {SEG_F_GPIO_Port, SEG_F_Pin},
  24:Core/Src/segment.c ****     {SEG_E_GPIO_Port, SEG_E_Pin},
  25:Core/Src/segment.c ****     {SEG_D_GPIO_Port, SEG_D_Pin},
  26:Core/Src/segment.c ****     {SEG_C_GPIO_Port, SEG_C_Pin},
  27:Core/Src/segment.c ****     {SEG_B_GPIO_Port, SEG_B_Pin},
  28:Core/Src/segment.c ****     {SEG_A_GPIO_Port, SEG_A_Pin},
  29:Core/Src/segment.c **** };
  30:Core/Src/segment.c **** 
  31:Core/Src/segment.c **** const uint8_t segment_map[10] = {
ARM GAS  /tmp/ccYP6Ns3.s 			page 2


  32:Core/Src/segment.c ****     0b11111100,
  33:Core/Src/segment.c ****     0b01100000,
  34:Core/Src/segment.c ****     0b11011010,
  35:Core/Src/segment.c ****     0b11110010,
  36:Core/Src/segment.c ****     0b01100110,
  37:Core/Src/segment.c ****     0b10110110,
  38:Core/Src/segment.c ****     0b10111110,
  39:Core/Src/segment.c ****     0b11100000,
  40:Core/Src/segment.c ****     0b11111110,
  41:Core/Src/segment.c ****     0b11110110
  42:Core/Src/segment.c **** };
  43:Core/Src/segment.c **** const uint8_t segment_dp = 1;
  44:Core/Src/segment.c **** 
  45:Core/Src/segment.c **** void seg_set_value(uint32_t val){
  28              		.loc 1 45 33 view -0
  29              		.cfi_startproc
  30              		@ args = 0, pretend = 0, frame = 0
  31              		@ frame_needed = 0, uses_anonymous_args = 0
  32              		.loc 1 45 33 is_stmt 0 view .LVU1
  33 0000 00B5     		push	{lr}
  34              		.cfi_def_cfa_offset 4
  35              		.cfi_offset 14, -4
  46:Core/Src/segment.c ****     segments[0] = val % 10;
  36              		.loc 1 46 5 is_stmt 1 view .LVU2
  37              		.loc 1 46 23 is_stmt 0 view .LVU3
  38 0002 134B     		ldr	r3, .L3
  39 0004 A3FB0012 		umull	r1, r2, r3, r0
  40 0008 D208     		lsrs	r2, r2, #3
  41 000a 9646     		mov	lr, r2
  42 000c 02EB8202 		add	r2, r2, r2, lsl #2
  43 0010 A0EB4202 		sub	r2, r0, r2, lsl #1
  44              		.loc 1 46 17 view .LVU4
  45 0014 0F49     		ldr	r1, .L3+4
  46 0016 0A70     		strb	r2, [r1]
  47:Core/Src/segment.c ****     val /= 10;
  47              		.loc 1 47 5 is_stmt 1 view .LVU5
  48              	.LVL1:
  48:Core/Src/segment.c ****     segments[1] = val % 10;
  49              		.loc 1 48 5 view .LVU6
  50              		.loc 1 48 23 is_stmt 0 view .LVU7
  51 0018 A3FB0E02 		umull	r0, r2, r3, lr
  52 001c D208     		lsrs	r2, r2, #3
  53 001e 9446     		mov	ip, r2
  54 0020 02EB8202 		add	r2, r2, r2, lsl #2
  55 0024 AEEB4202 		sub	r2, lr, r2, lsl #1
  56              		.loc 1 48 17 view .LVU8
  57 0028 4A70     		strb	r2, [r1, #1]
  49:Core/Src/segment.c ****     val /= 10;
  58              		.loc 1 49 5 is_stmt 1 view .LVU9
  59              	.LVL2:
  50:Core/Src/segment.c ****     segments[2] = val % 10;
  60              		.loc 1 50 5 view .LVU10
  61              		.loc 1 50 23 is_stmt 0 view .LVU11
  62 002a A3FB0C02 		umull	r0, r2, r3, ip
  63 002e D208     		lsrs	r2, r2, #3
  64 0030 1046     		mov	r0, r2
  65 0032 02EB8202 		add	r2, r2, r2, lsl #2
ARM GAS  /tmp/ccYP6Ns3.s 			page 3


  66 0036 ACEB4202 		sub	r2, ip, r2, lsl #1
  67              		.loc 1 50 17 view .LVU12
  68 003a 8A70     		strb	r2, [r1, #2]
  51:Core/Src/segment.c ****     val /= 10;
  69              		.loc 1 51 5 is_stmt 1 view .LVU13
  70              	.LVL3:
  52:Core/Src/segment.c ****     segments[3] = val % 10;
  71              		.loc 1 52 5 view .LVU14
  72              		.loc 1 52 23 is_stmt 0 view .LVU15
  73 003c A3FB0023 		umull	r2, r3, r3, r0
  74 0040 DB08     		lsrs	r3, r3, #3
  75 0042 03EB8303 		add	r3, r3, r3, lsl #2
  76 0046 A0EB4303 		sub	r3, r0, r3, lsl #1
  77              		.loc 1 52 17 view .LVU16
  78 004a CB70     		strb	r3, [r1, #3]
  53:Core/Src/segment.c **** }
  79              		.loc 1 53 1 view .LVU17
  80 004c 5DF804FB 		ldr	pc, [sp], #4
  81              	.L4:
  82              		.align	2
  83              	.L3:
  84 0050 CDCCCCCC 		.word	-858993459
  85 0054 00000000 		.word	.LANCHOR0
  86              		.cfi_endproc
  87              	.LFE65:
  89              		.section	.text.seg_update,"ax",%progbits
  90              		.align	1
  91              		.global	seg_update
  92              		.syntax unified
  93              		.thumb
  94              		.thumb_func
  96              	seg_update:
  97              	.LFB66:
  54:Core/Src/segment.c **** 
  55:Core/Src/segment.c **** void seg_update(void){
  98              		.loc 1 55 22 is_stmt 1 view -0
  99              		.cfi_startproc
 100              		@ args = 0, pretend = 0, frame = 0
 101              		@ frame_needed = 0, uses_anonymous_args = 0
 102 0000 38B5     		push	{r3, r4, r5, lr}
 103              		.cfi_def_cfa_offset 16
 104              		.cfi_offset 3, -16
 105              		.cfi_offset 4, -12
 106              		.cfi_offset 5, -8
 107              		.cfi_offset 14, -4
  56:Core/Src/segment.c ****     HAL_GPIO_WritePin(digit_pins[current_seg].port, digit_pins[current_seg].pin, 1);
 108              		.loc 1 56 5 view .LVU19
 109 0002 204C     		ldr	r4, .L14
 110 0004 2378     		ldrb	r3, [r4]	@ zero_extendqisi2
 111 0006 204D     		ldr	r5, .L14+4
 112 0008 05EBC301 		add	r1, r5, r3, lsl #3
 113 000c 0122     		movs	r2, #1
 114 000e 8988     		ldrh	r1, [r1, #4]
 115 0010 55F83300 		ldr	r0, [r5, r3, lsl #3]
 116 0014 FFF7FEFF 		bl	HAL_GPIO_WritePin
 117              	.LVL4:
  57:Core/Src/segment.c **** 
ARM GAS  /tmp/ccYP6Ns3.s 			page 4


  58:Core/Src/segment.c ****     current_seg = (current_seg + 1) % NUM_SEGMENTS;
 118              		.loc 1 58 5 view .LVU20
 119              		.loc 1 58 32 is_stmt 0 view .LVU21
 120 0018 2378     		ldrb	r3, [r4]	@ zero_extendqisi2
 121 001a 0133     		adds	r3, r3, #1
 122              		.loc 1 58 37 view .LVU22
 123 001c 5A42     		rsbs	r2, r3, #0
 124 001e 03F00303 		and	r3, r3, #3
 125 0022 02F00302 		and	r2, r2, #3
 126 0026 58BF     		it	pl
 127 0028 5342     		rsbpl	r3, r2, #0
 128              		.loc 1 58 17 view .LVU23
 129 002a DBB2     		uxtb	r3, r3
 130 002c 2370     		strb	r3, [r4]
  59:Core/Src/segment.c **** 
  60:Core/Src/segment.c ****     HAL_GPIO_WritePin(digit_pins[current_seg].port, digit_pins[current_seg].pin, 0);
 131              		.loc 1 60 5 is_stmt 1 view .LVU24
 132 002e 05EBC301 		add	r1, r5, r3, lsl #3
 133 0032 0022     		movs	r2, #0
 134 0034 8988     		ldrh	r1, [r1, #4]
 135 0036 55F83300 		ldr	r0, [r5, r3, lsl #3]
 136 003a FFF7FEFF 		bl	HAL_GPIO_WritePin
 137              	.LVL5:
  61:Core/Src/segment.c ****     
  62:Core/Src/segment.c ****     uint8_t digit_val = segments[current_seg];
 138              		.loc 1 62 5 view .LVU25
 139              		.loc 1 62 33 is_stmt 0 view .LVU26
 140 003e 2378     		ldrb	r3, [r4]	@ zero_extendqisi2
 141              		.loc 1 62 13 view .LVU27
 142 0040 124A     		ldr	r2, .L14+8
 143 0042 D25C     		ldrb	r2, [r2, r3]	@ zero_extendqisi2
 144              	.LVL6:
  63:Core/Src/segment.c ****     uint8_t digit_segments = segment_map[digit_val];
 145              		.loc 1 63 5 is_stmt 1 view .LVU28
 146              		.loc 1 63 13 is_stmt 0 view .LVU29
 147 0044 1249     		ldr	r1, .L14+12
 148 0046 8D5C     		ldrb	r5, [r1, r2]	@ zero_extendqisi2
 149              	.LVL7:
  64:Core/Src/segment.c ****     if(current_seg == 2){
 150              		.loc 1 64 5 is_stmt 1 view .LVU30
 151              		.loc 1 64 7 is_stmt 0 view .LVU31
 152 0048 022B     		cmp	r3, #2
 153 004a 01D0     		beq	.L12
 154              	.L6:
  65:Core/Src/segment.c ****         digit_segments |= segment_dp;
  66:Core/Src/segment.c ****     }
  67:Core/Src/segment.c **** 
  68:Core/Src/segment.c ****     for(uint8_t i = 0; i < 8; ++i){
 155              		.loc 1 68 5 is_stmt 1 view .LVU32
 156              	.LBB2:
 157              		.loc 1 68 9 view .LVU33
 158              	.LVL8:
 159              		.loc 1 68 17 is_stmt 0 view .LVU34
 160 004c 0024     		movs	r4, #0
 161              		.loc 1 68 5 view .LVU35
 162 004e 0DE0     		b	.L7
 163              	.LVL9:
ARM GAS  /tmp/ccYP6Ns3.s 			page 5


 164              	.L12:
 165              		.loc 1 68 5 view .LVU36
 166              	.LBE2:
  65:Core/Src/segment.c ****         digit_segments |= segment_dp;
 167              		.loc 1 65 9 is_stmt 1 view .LVU37
  65:Core/Src/segment.c ****         digit_segments |= segment_dp;
 168              		.loc 1 65 24 is_stmt 0 view .LVU38
 169 0050 45F00105 		orr	r5, r5, #1
 170              	.LVL10:
  65:Core/Src/segment.c ****         digit_segments |= segment_dp;
 171              		.loc 1 65 24 view .LVU39
 172 0054 FAE7     		b	.L6
 173              	.LVL11:
 174              	.L10:
 175              	.LBB5:
 176              	.LBB3:
  69:Core/Src/segment.c ****         uint8_t seg_on = 0;
  70:Core/Src/segment.c ****         if((digit_segments >> i) & 1) {
  71:Core/Src/segment.c ****             seg_on = 1;
 177              		.loc 1 71 20 view .LVU40
 178 0056 0122     		movs	r2, #1
 179              	.L8:
 180              	.LVL12:
  72:Core/Src/segment.c ****         }
  73:Core/Src/segment.c ****         HAL_GPIO_WritePin(segment_pins[i].port, segment_pins[i].pin, seg_on);
 181              		.loc 1 73 9 is_stmt 1 discriminator 2 view .LVU41
 182 0058 0E4B     		ldr	r3, .L14+16
 183 005a 03EBC001 		add	r1, r3, r0, lsl #3
 184 005e 8988     		ldrh	r1, [r1, #4]
 185 0060 53F83000 		ldr	r0, [r3, r0, lsl #3]
 186 0064 FFF7FEFF 		bl	HAL_GPIO_WritePin
 187              	.LVL13:
 188              		.loc 1 73 9 is_stmt 0 discriminator 2 view .LVU42
 189              	.LBE3:
  68:Core/Src/segment.c ****         uint8_t seg_on = 0;
 190              		.loc 1 68 31 is_stmt 1 discriminator 2 view .LVU43
 191 0068 0134     		adds	r4, r4, #1
 192              	.LVL14:
  68:Core/Src/segment.c ****         uint8_t seg_on = 0;
 193              		.loc 1 68 31 is_stmt 0 discriminator 2 view .LVU44
 194 006a E4B2     		uxtb	r4, r4
 195              	.LVL15:
 196              	.L7:
  68:Core/Src/segment.c ****         uint8_t seg_on = 0;
 197              		.loc 1 68 26 is_stmt 1 discriminator 1 view .LVU45
 198 006c 072C     		cmp	r4, #7
 199 006e 07D8     		bhi	.L13
 200              	.LBB4:
  69:Core/Src/segment.c ****         uint8_t seg_on = 0;
 201              		.loc 1 69 9 view .LVU46
 202              	.LVL16:
  70:Core/Src/segment.c ****             seg_on = 1;
 203              		.loc 1 70 9 view .LVU47
  70:Core/Src/segment.c ****             seg_on = 1;
 204              		.loc 1 70 28 is_stmt 0 view .LVU48
 205 0070 2046     		mov	r0, r4
 206 0072 45FA04F3 		asr	r3, r5, r4
ARM GAS  /tmp/ccYP6Ns3.s 			page 6


  70:Core/Src/segment.c ****             seg_on = 1;
 207              		.loc 1 70 11 view .LVU49
 208 0076 13F0010F 		tst	r3, #1
 209 007a ECD1     		bne	.L10
  69:Core/Src/segment.c ****         if((digit_segments >> i) & 1) {
 210              		.loc 1 69 17 view .LVU50
 211 007c 0022     		movs	r2, #0
 212 007e EBE7     		b	.L8
 213              	.LVL17:
 214              	.L13:
  69:Core/Src/segment.c ****         if((digit_segments >> i) & 1) {
 215              		.loc 1 69 17 view .LVU51
 216              	.LBE4:
 217              	.LBE5:
  74:Core/Src/segment.c ****     }
  75:Core/Src/segment.c **** }...
 218              		.loc 1 75 1 view .LVU52
 219 0080 38BD     		pop	{r3, r4, r5, pc}
 220              	.LVL18:
 221              	.L15:
 222              		.loc 1 75 1 view .LVU53
 223 0082 00BF     		.align	2
 224              	.L14:
 225 0084 00000000 		.word	.LANCHOR1
 226 0088 00000000 		.word	.LANCHOR2
 227 008c 00000000 		.word	.LANCHOR0
 228 0090 00000000 		.word	.LANCHOR3
 229 0094 00000000 		.word	.LANCHOR4
 230              		.cfi_endproc
 231              	.LFE66:
 233              		.global	segment_dp
 234              		.global	segment_map
 235              		.global	segment_pins
 236              		.global	digit_pins
 237              		.global	current_seg
 238              		.global	segments
 239              		.section	.bss.current_seg,"aw",%nobits
 240              		.set	.LANCHOR1,. + 0
 243              	current_seg:
 244 0000 00       		.space	1
 245              		.section	.bss.segments,"aw",%nobits
 246              		.align	2
 247              		.set	.LANCHOR0,. + 0
 250              	segments:
 251 0000 00000000 		.space	4
 252              		.section	.data.digit_pins,"aw"
 253              		.align	2
 254              		.set	.LANCHOR2,. + 0
 257              	digit_pins:
 258 0000 000C0140 		.word	1073810432
 259 0004 1000     		.short	16
 260 0006 0000     		.space	2
 261 0008 000C0140 		.word	1073810432
 262 000c 2000     		.short	32
 263 000e 0000     		.space	2
 264 0010 000C0140 		.word	1073810432
 265 0014 4000     		.short	64
ARM GAS  /tmp/ccYP6Ns3.s 			page 7


 266 0016 0000     		.space	2
 267 0018 000C0140 		.word	1073810432
 268 001c 8000     		.short	128
 269 001e 0000     		.space	2
 270              		.section	.data.segment_pins,"aw"
 271              		.align	2
 272              		.set	.LANCHOR4,. + 0
 275              	segment_pins:
 276 0000 000C0140 		.word	1073810432
 277 0004 0400     		.short	4
 278 0006 0000     		.space	2
 279 0008 000C0140 		.word	1073810432
 280 000c 0008     		.short	2048
 281 000e 0000     		.space	2
 282 0010 00100140 		.word	1073811456
 283 0014 0040     		.short	16384
 284 0016 0000     		.space	2
 285 0018 000C0140 		.word	1073810432
 286 001c 0100     		.short	1
 287 001e 0000     		.space	2
 288 0020 000C0140 		.word	1073810432
 289 0024 0200     		.short	2
 290 0026 0000     		.space	2
 291 0028 000C0140 		.word	1073810432
 292 002c 0004     		.short	1024
 293 002e 0000     		.space	2
 294 0030 00100140 		.word	1073811456
 295 0034 0020     		.short	8192
 296 0036 0000     		.space	2
 297 0038 00100140 		.word	1073811456
 298 003c 0080     		.short	-32768
 299 003e 0000     		.space	2
 300              		.section	.rodata.segment_dp,"a"
 303              	segment_dp:
 304 0000 01       		.byte	1
 305              		.section	.rodata.segment_map,"a"
 306              		.align	2
 307              		.set	.LANCHOR3,. + 0
 310              	segment_map:
 311 0000 FC60DAF2 		.ascii	"\374`\332\362f\266\276\340\376\366"
 311      66B6BEE0 
 311      FEF6
 312              		.text
 313              	.Letext0:
 314              		.file 2 "/home/jack/.config/Code - OSS/User/globalStorage/bmd.stm32-for-vscode/@xpack-dev-tools/ar
 315              		.file 3 "/home/jack/.config/Code - OSS/User/globalStorage/bmd.stm32-for-vscode/@xpack-dev-tools/ar
 316              		.file 4 "Drivers/CMSIS/Device/ST/STM32F1xx/Include/stm32f103xb.h"
 317              		.file 5 "Drivers/STM32F1xx_HAL_Driver/Inc/stm32f1xx_hal_gpio.h"
ARM GAS  /tmp/ccYP6Ns3.s 			page 8

